; Function Attrs: nounwind uwtable
define internal void @files_ready(i32 noundef %0, ptr noundef %1) #0 {
  %3 = alloca %struct.timeval, align 8
  %4 = alloca %struct.timeval, align 8
  %.not = icmp eq i32 %0, 0
  %5 = load i32, ptr getelementptr inbounds nuw (i8, ptr @prte_state_base_framework, i64 72), align 8, !tbaa !54
  %6 = icmp sgt i32 %5, 0
  br i1 %.not, label %32, label %7

7:                                                ; preds = %2
  br i1 %6, label %8, label %57

8:                                                ; preds = %7
  call void @llvm.lifetime.start.p0(i64 16, ptr nonnull %3) #16
  %9 = call i32 @gettimeofday(ptr noundef nonnull %3, ptr noundef null) #16
  %10 = load i64, ptr %3, align 8, !tbaa !55
  %11 = sitofp i64 %10 to double
  %12 = getelementptr inbounds nuw i8, ptr %3, i64 8
  %13 = load i64, ptr %12, align 8, !tbaa !56
  %14 = sitofp i64 %13 to double
  %15 = fdiv double %14, 1.000000e+06
  %16 = fadd double %15, %11
  call void @llvm.lifetime.end.p0(i64 16, ptr nonnull %3) #16
  %17 = load i32, ptr getelementptr inbounds nuw (i8, ptr @prte_state_base_framework, i64 76), align 4, !tbaa !24
  %or.cond = icmp ult i32 %17, 64
  br i1 %or.cond, label %18, label %57

18:                                               ; preds = %8
  %19 = zext nneg i32 %17 to i64
  %20 = getelementptr inbounds nuw [0 x %struct.pmix_output_desc_t], ptr @pmix_output_info, i64 0, i64 %19, i32 2
  %21 = load i32, ptr %20, align 4, !tbaa !57
  %22 = icmp sgt i32 %21, 0
  br i1 %22, label %23, label %57

23:                                               ; preds = %18
  %24 = tail call ptr @prte_util_print_name_args(ptr noundef nonnull @prte_process_info) #16
  %25 = icmp eq ptr %1, null
  br i1 %25, label %29, label %26

26:                                               ; preds = %23
  %27 = getelementptr inbounds nuw i8, ptr %1, i64 168
  %28 = tail call ptr @prte_util_print_jobids(ptr noundef nonnull %27) #16
  br label %29

29:                                               ; preds = %23, %26
  %30 = phi ptr [ %28, %26 ], [ @.str.3, %23 ]
  %31 = tail call ptr @prte_job_state_to_str(i32 noundef 71) #16
  tail call void (i32, ptr, ...) @pmix_output(i32 noundef %17, ptr noundef nonnull @.str.2, ptr noundef %24, double noundef %16, ptr noundef %30, ptr noundef %31, ptr noundef nonnull @.str.1, i32 noundef 240) #16
  br label %57

32:                                               ; preds = %2
  br i1 %6, label %33, label %57

33:                                               ; preds = %32
  call void @llvm.lifetime.start.p0(i64 16, ptr nonnull %4) #16
  %34 = call i32 @gettimeofday(ptr noundef nonnull %4, ptr noundef null) #16
  %35 = load i64, ptr %4, align 8, !tbaa !55
  %36 = sitofp i64 %35 to double
  %37 = getelementptr inbounds nuw i8, ptr %4, i64 8
  %38 = load i64, ptr %37, align 8, !tbaa !56
  %39 = sitofp i64 %38 to double
  %40 = fdiv double %39, 1.000000e+06
  %41 = fadd double %40, %36
  call void @llvm.lifetime.end.p0(i64 16, ptr nonnull %4) #16
  %42 = load i32, ptr getelementptr inbounds nuw (i8, ptr @prte_state_base_framework, i64 76), align 4, !tbaa !24
  %or.cond3 = icmp ult i32 %42, 64
  br i1 %or.cond3, label %43, label %57

43:                                               ; preds = %33
  %44 = zext nneg i32 %42 to i64
  %45 = getelementptr inbounds nuw [0 x %struct.pmix_output_desc_t], ptr @pmix_output_info, i64 0, i64 %44, i32 2
  %46 = load i32, ptr %45, align 4, !tbaa !57
  %47 = icmp sgt i32 %46, 0
  br i1 %47, label %48, label %57

48:                                               ; preds = %43
  %49 = tail call ptr @prte_util_print_name_args(ptr noundef nonnull @prte_process_info) #16
  %50 = icmp eq ptr %1, null
  br i1 %50, label %54, label %51

51:                                               ; preds = %48
  %52 = getelementptr inbounds nuw i8, ptr %1, i64 168
  %53 = tail call ptr @prte_util_print_jobids(ptr noundef nonnull %52) #16
  br label %54

54:                                               ; preds = %48, %51
  %55 = phi ptr [ %53, %51 ], [ @.str.3, %48 ]
  %56 = tail call ptr @prte_job_state_to_str(i32 noundef 5) #16
  tail call void (i32, ptr, ...) @pmix_output(i32 noundef %42, ptr noundef nonnull @.str.2, ptr noundef %49, double noundef %41, ptr noundef %55, ptr noundef %56, ptr noundef nonnull @.str.1, i32 noundef 242) #16
  br label %57

57:                                               ; preds = %32, %54, %43, %33, %7, %29, %18, %8
  %.sink = phi i32 [ 71, %8 ], [ 71, %18 ], [ 71, %29 ], [ 71, %7 ], [ 5, %33 ], [ 5, %43 ], [ 5, %54 ], [ 5, %32 ]
  %58 = load ptr, ptr getelementptr inbounds nuw (i8, ptr @prte_state, i64 16), align 8, !tbaa !60
  tail call void %58(ptr noundef %1, i32 noundef %.sink) #16
  ret void
}